target datalayout = "e-m:e-p270:32:32-p271:32:32-p272:64:64-i64:64-i128:128-f80:128-n8:16:32:64-S128"
target triple = "x86_64-pc-linux-gnu"

%struct._object = type { %union.anon, ptr }
%union.anon = type { i64 }
%struct.PyMethodDef = type { ptr, ptr, i32, ptr }
%struct.PyCMethodObject = type { %struct.PyCFunctionObject, ptr }
%struct.PyCFunctionObject = type { %struct._object, ptr, ptr, ptr, ptr, ptr }

; Function Attrs: inlinehint nounwind uwtable
define internal ptr @PyCFunction_GET_CLASS(ptr noundef %0) #3 {
  %2 = alloca ptr, align 8
  %3 = alloca ptr, align 8
  %4 = alloca ptr, align 8
  %5 = alloca i32, align 4
  store ptr %0, ptr %3, align 8, !tbaa !9
  call void @llvm.lifetime.start.p0(i64 8, ptr %4) #6
  %6 = load ptr, ptr %3, align 8, !tbaa !9
  store ptr %6, ptr %4, align 8, !tbaa !17
  %7 = load ptr, ptr %4, align 8, !tbaa !17
  %8 = getelementptr inbounds nuw %struct.PyCFunctionObject, ptr %7, i32 0, i32 1
  %9 = load ptr, ptr %8, align 8, !tbaa !24
  %10 = getelementptr inbounds nuw %struct.PyMethodDef, ptr %9, i32 0, i32 2
  %11 = load i32, ptr %10, align 8, !tbaa !13
  %12 = and i32 %11, 512
  %13 = icmp ne i32 %12, 0
  br i1 %13, label %14, label %18

14:                                               ; preds = %1
  %15 = load ptr, ptr %4, align 8, !tbaa !17
  %16 = getelementptr inbounds nuw %struct.PyCMethodObject, ptr %15, i32 0, i32 1
  %17 = load ptr, ptr %16, align 8, !tbaa !19
  store ptr %17, ptr %2, align 8
  store i32 1, ptr %5, align 4
  br label %19

18:                                               ; preds = %1
  store ptr null, ptr %2, align 8
  store i32 1, ptr %5, align 4
  br label %19

19:                                               ; preds = %18, %14
  call void @llvm.lifetime.end.p0(i64 8, ptr %4) #6
  %20 = load ptr, ptr %2, align 8
  ret ptr %20
}

; Function Attrs: nounwind uwtable
define internal i32 @meth_traverse(ptr noundef %0, ptr noundef %1, ptr noundef %2) #0 {
  %4 = alloca i32, align 4
  %5 = alloca ptr, align 8
  %6 = alloca ptr, align 8
  %7 = alloca ptr, align 8
  %8 = alloca ptr, align 8
  %9 = alloca i32, align 4
  %10 = alloca i32, align 4
  %11 = alloca i32, align 4
  %12 = alloca i32, align 4
  store ptr %0, ptr %5, align 8, !tbaa !9
  store ptr %1, ptr %6, align 8, !tbaa !17
  store ptr %2, ptr %7, align 8, !tbaa !17
  call void @llvm.lifetime.start.p0(i64 8, ptr %8) #6
  %13 = load ptr, ptr %5, align 8, !tbaa !9
  store ptr %13, ptr %8, align 8, !tbaa !17
  br label %14

14:                                               ; preds = %3
  %15 = load ptr, ptr %8, align 8, !tbaa !17
  %16 = call ptr @PyCFunction_GET_CLASS(ptr noundef %15)
  %17 = icmp ne ptr %16, null
  br i1 %17, label %18, label %32

18:                                               ; preds = %14
  call void @llvm.lifetime.start.p0(i64 4, ptr %9) #6
  %19 = load ptr, ptr %6, align 8, !tbaa !17
  %20 = load ptr, ptr %8, align 8, !tbaa !17
  %21 = call ptr @PyCFunction_GET_CLASS(ptr noundef %20)
  %22 = load ptr, ptr %7, align 8, !tbaa !17
  %23 = call i32 %19(ptr noundef %21, ptr noundef %22)
  store i32 %23, ptr %9, align 4, !tbaa !123
  %24 = load i32, ptr %9, align 4, !tbaa !123
  %25 = icmp ne i32 %24, 0
  br i1 %25, label %26, label %28

26:                                               ; preds = %18
  %27 = load i32, ptr %9, align 4, !tbaa !123
  store i32 %27, ptr %4, align 4
  store i32 1, ptr %10, align 4
  br label %29

28:                                               ; preds = %18
  store i32 0, ptr %10, align 4
  br label %29

29:                                               ; preds = %28, %26
  call void @llvm.lifetime.end.p0(i64 4, ptr %9) #6
  %30 = load i32, ptr %10, align 4
  switch i32 %30, label %81 [
    i32 0, label %31
  ]

31:                                               ; preds = %29
  br label %32

32:                                               ; preds = %31, %14
  br label %33

33:                                               ; preds = %32
  br label %34

34:                                               ; preds = %33
  br label %35

35:                                               ; preds = %34
  %36 = load ptr, ptr %8, align 8, !tbaa !17
  %37 = getelementptr inbounds nuw %struct.PyCFunctionObject, ptr %36, i32 0, i32 2
  %38 = load ptr, ptr %37, align 8, !tbaa !25
  %39 = icmp ne ptr %38, null
  br i1 %39, label %40, label %55

40:                                               ; preds = %35
  call void @llvm.lifetime.start.p0(i64 4, ptr %11) #6
  %41 = load ptr, ptr %6, align 8, !tbaa !17
  %42 = load ptr, ptr %8, align 8, !tbaa !17
  %43 = getelementptr inbounds nuw %struct.PyCFunctionObject, ptr %42, i32 0, i32 2
  %44 = load ptr, ptr %43, align 8, !tbaa !25
  %45 = load ptr, ptr %7, align 8, !tbaa !17
  %46 = call i32 %41(ptr noundef %44, ptr noundef %45)
  store i32 %46, ptr %11, align 4, !tbaa !123
  %47 = load i32, ptr %11, align 4, !tbaa !123
  %48 = icmp ne i32 %47, 0
  br i1 %48, label %49, label %51

49:                                               ; preds = %40
  %50 = load i32, ptr %11, align 4, !tbaa !123
  store i32 %50, ptr %4, align 4
  store i32 1, ptr %10, align 4
  br label %52

51:                                               ; preds = %40
  store i32 0, ptr %10, align 4
  br label %52

52:                                               ; preds = %51, %49
  call void @llvm.lifetime.end.p0(i64 4, ptr %11) #6
  %53 = load i32, ptr %10, align 4
  switch i32 %53, label %81 [
    i32 0, label %54
  ]

54:                                               ; preds = %52
  br label %55

55:                                               ; preds = %54, %35
  br label %56

56:                                               ; preds = %55
  br label %57

57:                                               ; preds = %56
  br label %58

58:                                               ; preds = %57
  %59 = load ptr, ptr %8, align 8, !tbaa !17
  %60 = getelementptr inbounds nuw %struct.PyCFunctionObject, ptr %59, i32 0, i32 3
  %61 = load ptr, ptr %60, align 8, !tbaa !26
  %62 = icmp ne ptr %61, null
  br i1 %62, label %63, label %78

63:                                               ; preds = %58
  call void @llvm.lifetime.start.p0(i64 4, ptr %12) #6
  %64 = load ptr, ptr %6, align 8, !tbaa !17
  %65 = load ptr, ptr %8, align 8, !tbaa !17
  %66 = getelementptr inbounds nuw %struct.PyCFunctionObject, ptr %65, i32 0, i32 3
  %67 = load ptr, ptr %66, align 8, !tbaa !26
  %68 = load ptr, ptr %7, align 8, !tbaa !17
  %69 = call i32 %64(ptr noundef %67, ptr noundef %68)
  store i32 %69, ptr %12, align 4, !tbaa !123
  %70 = load i32, ptr %12, align 4, !tbaa !123
  %71 = icmp ne i32 %70, 0
  br i1 %71, label %72, label %74

72:                                               ; preds = %63
  %73 = load i32, ptr %12, align 4, !tbaa !123
  store i32 %73, ptr %4, align 4
  store i32 1, ptr %10, align 4
  br label %75

74:                                               ; preds = %63
  store i32 0, ptr %10, align 4
  br label %75

75:                                               ; preds = %74, %72
  call void @llvm.lifetime.end.p0(i64 4, ptr %12) #6
  %76 = load i32, ptr %10, align 4
  switch i32 %76, label %81 [
    i32 0, label %77
  ]

77:                                               ; preds = %75
  br label %78

78:                                               ; preds = %77, %58
  br label %79

79:                                               ; preds = %78
  br label %80

80:                                               ; preds = %79
  store i32 0, ptr %4, align 4
  store i32 1, ptr %10, align 4
  br label %81

81:                                               ; preds = %80, %75, %52, %29
  call void @llvm.lifetime.end.p0(i64 8, ptr %8) #6
  %82 = load i32, ptr %4, align 4
  ret i32 %82
}