; Function Attrs: nounwind uwtable
define internal i32 @meth_traverse(ptr noundef readonly captures(none) %0, ptr noundef readonly captures(none) %1, ptr noundef %2) #0 {
  %4 = getelementptr inbounds nuw i8, ptr %0, i64 16
  %5 = load ptr, ptr %4, align 8, !tbaa !22
  %6 = getelementptr inbounds nuw i8, ptr %5, i64 16
  %7 = load i32, ptr %6, align 8, !tbaa !4
  %8 = and i32 %7, 512
  %.not.i = icmp eq i32 %8, 0
  br i1 %.not.i, label %PyCFunction_GET_CLASS.exit.thread, label %PyCFunction_GET_CLASS.exit

PyCFunction_GET_CLASS.exit:                       ; preds = %3
  %9 = getelementptr inbounds nuw i8, ptr %0, i64 56
  %10 = load ptr, ptr %9, align 8, !tbaa !15
  %.not = icmp eq ptr %10, null
  br i1 %.not, label %PyCFunction_GET_CLASS.exit.thread, label %PyCFunction_GET_CLASS.exit37

PyCFunction_GET_CLASS.exit37:                     ; preds = %PyCFunction_GET_CLASS.exit
  %11 = tail call i32 %1(ptr noundef nonnull %10, ptr noundef %2) #5
  %.not30 = icmp eq i32 %11, 0
  br i1 %.not30, label %PyCFunction_GET_CLASS.exit.thread, label %22

PyCFunction_GET_CLASS.exit.thread:                ; preds = %3, %PyCFunction_GET_CLASS.exit, %PyCFunction_GET_CLASS.exit37
  %12 = getelementptr inbounds nuw i8, ptr %0, i64 24
  %13 = load ptr, ptr %12, align 8, !tbaa !23
  %.not31 = icmp eq ptr %13, null
  br i1 %.not31, label %16, label %14

14:                                               ; preds = %PyCFunction_GET_CLASS.exit.thread
  %15 = tail call i32 %1(ptr noundef nonnull %13, ptr noundef %2) #5
  %.not32 = icmp eq i32 %15, 0
  br i1 %.not32, label %16, label %22

16:                                               ; preds = %PyCFunction_GET_CLASS.exit.thread, %14
  %17 = getelementptr inbounds nuw i8, ptr %0, i64 32
  %18 = load ptr, ptr %17, align 8, !tbaa !24
  %.not33 = icmp eq ptr %18, null
  br i1 %.not33, label %21, label %19

19:                                               ; preds = %16
  %20 = tail call i32 %1(ptr noundef nonnull %18, ptr noundef %2) #5
  %.not34 = icmp eq i32 %20, 0
  br i1 %.not34, label %21, label %22

21:                                               ; preds = %19, %16
  br label %22

22:                                               ; preds = %PyCFunction_GET_CLASS.exit37, %14, %19, %21
  %.1 = phi i32 [ 0, %21 ], [ %20, %19 ], [ %15, %14 ], [ %11, %PyCFunction_GET_CLASS.exit37 ]
  ret i32 %.1
}